; Function Attrs: mustprogress nounwind uwtable
define void @_ZN6icu_7519BreakTransliteratorD2Ev(ptr noundef nonnull align 8 dereferenceable(168) %this) unnamed_addr #0 align 2 {
entry:
  store ptr getelementptr inbounds ({ [21 x ptr] }, ptr @_ZTVN6icu_7519BreakTransliteratorE, i64 0, i32 0, i64 2), ptr %this, align 8
  %fInsertion = getelementptr inbounds i8, ptr %this, i64 104
  tail call void @_ZN6icu_7513UnicodeStringD1Ev(ptr noundef nonnull align 8 dereferenceable(64) %fInsertion) #12
  %cachedBoundaries = getelementptr inbounds i8, ptr %this, i64 96
  %0 = load ptr, ptr %cachedBoundaries, align 8
  %isnull.i = icmp eq ptr %0, null
  br i1 %isnull.i, label %_ZN6icu_7512LocalPointerINS_9UVector32EED2Ev.exit, label %delete.notnull.i

delete.notnull.i:                                 ; preds = %entry
  %vtable.i = load ptr, ptr %0, align 8
  %vfn.i = getelementptr inbounds i8, ptr %vtable.i, i64 8
  %1 = load ptr, ptr %vfn.i, align 8
  tail call void %1(ptr noundef nonnull align 8 dereferenceable(32) %0) #12
  br label %_ZN6icu_7512LocalPointerINS_9UVector32EED2Ev.exit

_ZN6icu_7512LocalPointerINS_9UVector32EED2Ev.exit: ; preds = %entry, %delete.notnull.i
  %cachedBI = getelementptr inbounds i8, ptr %this, i64 88
  %2 = load ptr, ptr %cachedBI, align 8
  %isnull.i1 = icmp eq ptr %2, null
  br i1 %isnull.i1, label %_ZN6icu_7512LocalPointerINS_13BreakIteratorEED2Ev.exit, label %delete.notnull.i2

delete.notnull.i2:                                ; preds = %_ZN6icu_7512LocalPointerINS_9UVector32EED2Ev.exit
  %vtable.i3 = load ptr, ptr %2, align 8
  %vfn.i4 = getelementptr inbounds i8, ptr %vtable.i3, i64 8
  %3 = load ptr, ptr %vfn.i4, align 8
  tail call void %3(ptr noundef nonnull align 8 dereferenceable(479) %2) #12
  br label %_ZN6icu_7512LocalPointerINS_13BreakIteratorEED2Ev.exit

_ZN6icu_7512LocalPointerINS_13BreakIteratorEED2Ev.exit: ; preds = %_ZN6icu_7512LocalPointerINS_9UVector32EED2Ev.exit, %delete.notnull.i2
  tail call void @_ZN6icu_7514TransliteratorD2Ev(ptr noundef nonnull align 8 dereferenceable(84) %this) #12
  ret void
}